; Function Attrs: mustprogress uwtable
define noundef range(i64 -2147483648, 2147483648) i64 @_ZNK10open_spiel11negotiation16NegotiationState14EncodeProposalERKSt6vectorIiSaIiEE(ptr nocapture noundef nonnull readonly align 8 dereferenceable(208) %0, ptr nocapture noundef nonnull readonly align 8 dereferenceable(24) %1) local_unnamed_addr #3 align 2 personality ptr @__gxx_personality_v0 {
  %3 = alloca i64, align 8
  %4 = alloca i32, align 4
  %5 = alloca %"class.std::__cxx11::basic_string", align 8
  %6 = alloca i32, align 4
  %7 = getelementptr inbounds nuw i8, ptr %1, i64 8
  %8 = load ptr, ptr %7, align 8
  %9 = load ptr, ptr %1, align 8
  %10 = ptrtoint ptr %8 to i64
  %11 = ptrtoint ptr %9 to i64
  %12 = sub i64 %10, %11
  %13 = ashr exact i64 %12, 2
  store i64 %13, ptr %3, align 8
  %14 = getelementptr inbounds nuw i8, ptr %0, i64 76
  %15 = load i32, ptr %14, align 4
  store i32 %15, ptr %4, align 4
  %16 = sext i32 %15 to i64
  %17 = icmp eq i64 %13, %16
  br i1 %17, label %22, label %18

18:                                               ; preds = %2
  store i32 400, ptr %6, align 4
  call void @_ZN10open_spiel8internal11SpielStrCatIJRA142_KcRA2_S2_iS6_RA30_S2_RA17_S2_RA4_S2_RmRA16_S2_RiEEENSt7__cxx1112basic_stringIcSt11char_traitsIcESaIcEEEDpOT_(ptr dead_on_unwind nonnull writable sret(%"class.std::__cxx11::basic_string") align 8 %5, ptr noundef nonnull align 1 dereferenceable(142) @.str.18, ptr noundef nonnull align 1 dereferenceable(2) @.str.19, ptr noundef nonnull align 4 dereferenceable(4) %6, ptr noundef nonnull align 1 dereferenceable(2) @.str.20, ptr noundef nonnull align 1 dereferenceable(30) @.str.51, ptr noundef nonnull align 1 dereferenceable(17) @.str.52, ptr noundef nonnull align 1 dereferenceable(4) @.str.23, ptr noundef nonnull align 8 dereferenceable(8) %3, ptr noundef nonnull align 1 dereferenceable(16) @.str.53, ptr noundef nonnull align 4 dereferenceable(4) %4)
  invoke void @_ZN10open_spiel15SpielFatalErrorERKNSt7__cxx1112basic_stringIcSt11char_traitsIcESaIcEEE(ptr noundef nonnull align 8 dereferenceable(32) %5) #31
          to label %19 unwind label %20

19:                                               ; preds = %18
  unreachable

20:                                               ; preds = %18
  %21 = landingpad { ptr, i32 }
          cleanup
  call void @_ZNSt7__cxx1112basic_stringIcSt11char_traitsIcESaIcEED1Ev(ptr noundef nonnull align 8 dereferenceable(32) %5) #32
  resume { ptr, i32 } %21

22:                                               ; preds = %2
  %.not9.i = icmp eq ptr %9, %8
  br i1 %.not9.i, label %_ZNK10open_spiel11negotiation16NegotiationState13EncodeIntegerERKSt6vectorIiSaIiEEi.exit, label %.lr.ph.i

.lr.ph.i:                                         ; preds = %22, %.lr.ph.i
  %.011.i = phi i32 [ %25, %.lr.ph.i ], [ 0, %22 ]
  %.sroa.06.010.i = phi ptr [ %26, %.lr.ph.i ], [ %9, %22 ]
  %23 = load i32, ptr %.sroa.06.010.i, align 4
  %24 = mul nsw i32 %.011.i, 6
  %25 = add nsw i32 %23, %24
  %26 = getelementptr inbounds i8, ptr %.sroa.06.010.i, i64 4
  %.not.i = icmp eq ptr %26, %8
  br i1 %.not.i, label %_ZNK10open_spiel11negotiation16NegotiationState13EncodeIntegerERKSt6vectorIiSaIiEEi.exit.loopexit, label %.lr.ph.i

_ZNK10open_spiel11negotiation16NegotiationState13EncodeIntegerERKSt6vectorIiSaIiEEi.exit.loopexit: ; preds = %.lr.ph.i
  %27 = sext i32 %25 to i64
  br label %_ZNK10open_spiel11negotiation16NegotiationState13EncodeIntegerERKSt6vectorIiSaIiEEi.exit

_ZNK10open_spiel11negotiation16NegotiationState13EncodeIntegerERKSt6vectorIiSaIiEEi.exit: ; preds = %_ZNK10open_spiel11negotiation16NegotiationState13EncodeIntegerERKSt6vectorIiSaIiEEi.exit.loopexit, %22
  %.0.lcssa.i = phi i64 [ 0, %22 ], [ %27, %_ZNK10open_spiel11negotiation16NegotiationState13EncodeIntegerERKSt6vectorIiSaIiEEi.exit.loopexit ]
  ret i64 %.0.lcssa.i
}